target datalayout = "e-m:e-p270:32:32-p271:32:32-p272:64:64-i64:64-i128:128-f80:128-n8:16:32:64-S128"
target triple = "x86_64-pc-linux-gnu"

%"class.std::vector.5" = type { %"struct.std::_Vector_base.6" }
%"struct.std::_Vector_base.6" = type { %"struct.std::_Vector_base<casadi::MX, std::allocator<casadi::MX>>::_Vector_impl" }
%"struct.std::_Vector_base<casadi::MX, std::allocator<casadi::MX>>::_Vector_impl" = type { %"struct.std::_Vector_base<casadi::MX, std::allocator<casadi::MX>>::_Vector_impl_data" }
%"struct.std::_Vector_base<casadi::MX, std::allocator<casadi::MX>>::_Vector_impl_data" = type { ptr, ptr, ptr }

@_ZN6casadi4CallC1ERKNS_8FunctionERKSt6vectorINS_2MXESaIS5_EE = unnamed_addr alias void (ptr, ptr, ptr), ptr @_ZN6casadi4CallC2ERKNS_8FunctionERKSt6vectorINS_2MXESaIS5_EE

; Function Attrs: mustprogress uwtable
define void @_ZN6casadi4Call6createERKNS_8FunctionERKSt6vectorINS_2MXESaIS5_EE(ptr dead_on_unwind noalias writable sret(%"class.std::vector.5") align 8 %0, ptr noundef nonnull align 8 dereferenceable(8) %1, ptr noundef nonnull align 8 dereferenceable(24) %2) #4 align 2 personality ptr @__gxx_personality_v0 {
  %4 = alloca ptr, align 8
  %5 = alloca ptr, align 8
  %6 = alloca ptr, align 8
  %7 = alloca ptr, align 8
  %8 = alloca i32, align 4
  store ptr %0, ptr %4, align 8
  store ptr %1, ptr %5, align 8, !tbaa !50
  store ptr %2, ptr %6, align 8, !tbaa !52
  %9 = call noalias noundef nonnull ptr @_Znwm(i64 noundef 128) #21
  %10 = load ptr, ptr %5, align 8, !tbaa !50
  %11 = load ptr, ptr %6, align 8, !tbaa !52
  invoke void @_ZN6casadi4CallC1ERKNS_8FunctionERKSt6vectorINS_2MXESaIS5_EE(ptr noundef nonnull align 8 dereferenceable(128) %9, ptr noundef nonnull align 8 dereferenceable(8) %10, ptr noundef nonnull align 8 dereferenceable(24) %11)
          to label %12 unwind label %13

12:                                               ; preds = %3
  call void @_ZN6casadi2MX20createMultipleOutputEPNS_6MXNodeE(ptr dead_on_unwind writable sret(%"class.std::vector.5") align 8 %0, ptr noundef %9)
  ret void

13:                                               ; preds = %3
  %14 = landingpad { ptr, i32 }
          cleanup
  %15 = extractvalue { ptr, i32 } %14, 0
  store ptr %15, ptr %7, align 8
  %16 = extractvalue { ptr, i32 } %14, 1
  store i32 %16, ptr %8, align 4
  call void @_ZdlPvm(ptr noundef %9, i64 noundef 128) #22
  br label %17

17:                                               ; preds = %13
  %18 = load ptr, ptr %7, align 8
  %19 = load i32, ptr %8, align 4
  %20 = insertvalue { ptr, i32 } poison, ptr %18, 0
  %21 = insertvalue { ptr, i32 } %20, i32 %19, 1
  resume { ptr, i32 } %21
}